	.cpu cortex-m4
	.eabi_attribute 27, 1
	.eabi_attribute 28, 1
	.eabi_attribute 20, 1
	.eabi_attribute 21, 1
	.eabi_attribute 23, 3
	.eabi_attribute 24, 1
	.eabi_attribute 25, 1
	.eabi_attribute 26, 1
	.eabi_attribute 30, 4
	.eabi_attribute 34, 1
	.eabi_attribute 18, 4
	.file	"schoolbook.c"
	.text
.Ltext0:
	.cfi_sections	.debug_frame
	.section	.text.schoolbook_mult,"ax",%progbits
	.align	1
	.global	schoolbook_mult
	.syntax unified
	.thumb
	.thumb_func
	.fpu fpv4-sp-d16
	.type	schoolbook_mult, %function
schoolbook_mult:
.LFB0:
	.file 1 "schoolbook.c"
	.loc 1 4 0
	.cfi_startproc
	@ args = 0, pretend = 0, frame = 0
	@ frame_needed = 0, uses_anonymous_args = 0
.LVL0:
	push	{r4, r5, r6, r7, r8, r9, r10, lr}
.LCFI0:
	.cfi_def_cfa_offset 32
	.cfi_offset 4, -32
	.cfi_offset 5, -28
	.cfi_offset 6, -24
	.cfi_offset 7, -20
	.cfi_offset 8, -16
	.cfi_offset 9, -12
	.cfi_offset 10, -8
	.cfi_offset 14, -4
	.loc 1 23 0
	ldr	r6, .L10
	.loc 1 21 0
	movs	r4, #0
	.loc 1 23 0
	movs	r7, #228
	.loc 1 24 0
	movw	ip, #58470
.LVL1:
.L2:
	mov	r3, r1
	add	r8, r1, r4
	add	lr, r2, r4
	add	lr, lr, #2
	.loc 1 21 0
	movs	r5, #0
.LVL2:
	and	r10, r4, #3
	cmp	r10, 0
	bne	.L3
	ldrh	r10, [r3], #2
	ldrsh	r9, [lr, #-2]!
	smlabb	r5, r10, r9, r5
	b	.LVL3
.L3:
	.loc 1 22 0 discriminator 3
	ldr	r10, [r3], #4
	ldr	r9, [lr, #-4]! 
	smladx	r5, r10, r9, r5
.LVL3:
	cmp	r3, r8
	ble	.L3
	.loc 1 23 0 discriminator 2
	mul	r3, r7, r5
	asrs	r3, r3, #20
	mla	r5, r6, r3, r5
.LVL4:
	.loc 1 24 0 discriminator 2
	mul	r3, ip, r5
	add	r3, r3, #134217728
	asrs	r3, r3, #28
.LVL5:
	mla	r3, r6, r3, r5
.LVL6:
	.loc 1 26 0 discriminator 2
	strh	r3, [r0, r4]	@ movhi
	adds	r4, r4, #2
	.loc 1 20 0 discriminator 2
	cmp	r4, #48
	bne	.L2
	.loc 1 32 0
	ldr	r6, .L10
	adds	r0, r0, #46
.LVL7:
	.loc 1 20 0
	movs	r5, #1
.LVL8:
	.loc 1 32 0
	mov	ip, #228
	.loc 1 33 0
	movw	r7, #58470
.LVL9:
.L6:
	.loc 1 31 0
	mov	r3, r5
.LVL10:
	add	lr, r2, #48
	.loc 1 30 0
	movs	r4, #0
.LVL11:
	and	r9, r5, #1
	cmp	r9, #1
	bne	.L5
	ldrh	r9, [r1, r3, lsl #1]
	ldrh	r8, [lr, #-2]!
	adds	r3, r3, #1
	smlabb	r4, r9, r8, r4
	b	.LVL13
.L5:
	.loc 1 31 0 discriminator 3
	ldr	r9, [r1, r3, lsl #1]
	ldr	r8, [lr, #-4]!
	adds	r3, r3, #2
.LVL12:
	smladx	r4, r9, r8, r4
.LVL13:
	cmp	r3, #24
	bne	.L5
	.loc 1 32 0 discriminator 2
	mul	r3, ip, r4
.LVL14:
	asrs	r3, r3, #20
	mla	r4, r6, r3, r4
.LVL15:
	.loc 1 33 0 discriminator 2
	mul	r3, r7, r4
	add	r3, r3, #134217728
	asrs	r3, r3, #28
.LVL16:
	adds	r5, r5, #1
.LVL17:
	mla	r3, r6, r3, r4
.LVL18:
	.loc 1 29 0 discriminator 2
	cmp	r5, #24
	.loc 1 35 0 discriminator 2
	strh	r3, [r0, #2]!	@ movhi
.LVL19:
	.loc 1 29 0 discriminator 2
	bne	.L6
	.loc 1 37 0
	pop	{r4, r5, r6, r7, r8, r9, r10, pc}
.LVL20:
.L11:
	.align	2
.L10:
	.word	-4591
	.cfi_endproc
.LFE0:
	.size	schoolbook_mult, .-schoolbook_mult
	.text
.Letext0:
	.file 2 "/usr/arm-none-eabi/include/machine/_default_types.h"
	.file 3 "/usr/arm-none-eabi/include/sys/_stdint.h"